Archive member included to satisfy reference by file (symbol)

/opt/f-of-e-tools/tools/sunflower/sys/libOS/eOS/libeOS-superH.a(print.o)
                              findTheBugExample.o (print)
/opt/f-of-e-tools/tools/sunflower/tools/tools-lib/superH/libc.a(lib_a-atexit.o)
                              init.o (atexit)
/opt/f-of-e-tools/tools/sunflower/tools/tools-lib/superH/libc.a(lib_a-malloc.o)
                              init.o (malloc)
/opt/f-of-e-tools/tools/sunflower/tools/tools-lib/superH/libc.a(lib_a-mallocr.o)
                              /opt/f-of-e-tools/tools/sunflower/tools/tools-lib/superH/libc.a(lib_a-malloc.o) (_malloc_r)
/opt/f-of-e-tools/tools/sunflower/tools/tools-lib/superH/libc.a(lib_a-mlock.o)
                              /opt/f-of-e-tools/tools/sunflower/tools/tools-lib/superH/libc.a(lib_a-mallocr.o) (__malloc_lock)
/opt/f-of-e-tools/tools/sunflower/tools/tools-lib/superH/libc.a(lib_a-sbrkr.o)
                              /opt/f-of-e-tools/tools/sunflower/tools/tools-lib/superH/libc.a(lib_a-mallocr.o) (_sbrk_r)
/opt/f-of-e-tools/tools/sunflower/tools/tools-lib/superH/libc.a(lib_a-syscalls.o)
                              /opt/f-of-e-tools/tools/sunflower/tools/tools-lib/superH/libc.a(lib_a-sbrkr.o) (_sbrk)
/opt/f-of-e-tools/tools/sunflower/tools/tools-lib/superH/libc.a(lib_a-trap.o)
                              /opt/f-of-e-tools/tools/sunflower/tools/tools-lib/superH/libc.a(lib_a-syscalls.o) (__trap34)
/opt/f-of-e-tools/tools/sunflower/tools/tools-lib/superH/libc.a(lib_a-__atexit.o)
                              /opt/f-of-e-tools/tools/sunflower/tools/tools-lib/superH/libc.a(lib_a-atexit.o) (__register_exitproc)
/opt/f-of-e-tools/tools/sunflower/tools/tools-lib/superH/libc.a(lib_a-abort.o)
                              /opt/f-of-e-tools/tools/sunflower/tools/tools-lib/superH/libc.a(lib_a-syscalls.o) (abort)
/opt/f-of-e-tools/tools/sunflower/tools/tools-lib/superH/libc.a(lib_a-freer.o)
                              /opt/f-of-e-tools/tools/sunflower/tools/tools-lib/superH/libc.a(lib_a-malloc.o) (_free_r)
/opt/f-of-e-tools/tools/sunflower/tools/tools-lib/superH/libc.a(lib_a-impure.o)
                              /opt/f-of-e-tools/tools/sunflower/tools/tools-lib/superH/libc.a(lib_a-__atexit.o) (_global_impure_ptr)
/opt/f-of-e-tools/tools/sunflower/tools/tools-lib/superH/libc.a(lib_a-signal.o)
                              /opt/f-of-e-tools/tools/sunflower/tools/tools-lib/superH/libc.a(lib_a-abort.o) (raise)
/opt/f-of-e-tools/tools/sunflower/tools/tools-lib/superH/libc.a(lib_a-signalr.o)
                              /opt/f-of-e-tools/tools/sunflower/tools/tools-lib/superH/libc.a(lib_a-signal.o) (_kill_r)
/opt/f-of-e-tools/tools/sunflower/tools/tools-lib/superH/libgcc.a(_ashiftlt.o)
                              /opt/f-of-e-tools/tools/sunflower/tools/tools-lib/superH/libc.a(lib_a-mallocr.o) (__ashlsi3_r0)
/opt/f-of-e-tools/tools/sunflower/tools/tools-lib/superH/libgcc.a(_sdivsi3.o)
                              /opt/f-of-e-tools/tools/sunflower/sys/libOS/eOS/libeOS-superH.a(print.o) (__sdivsi3)

Allocating common symbols
Common symbol       size              file

REGSAVESTACK        0x24              findTheBugExample.o
errno               0x4               /opt/f-of-e-tools/tools/sunflower/tools/tools-lib/superH/libc.a(lib_a-syscalls.o)

Discarded input sections

 .group         0x0000000000000000        0x8 /opt/f-of-e-tools/tools/sunflower/sys/libOS/eOS/libeOS-superH.a(print.o)
 .group         0x0000000000000000        0x8 /opt/f-of-e-tools/tools/sunflower/sys/libOS/eOS/libeOS-superH.a(print.o)

Memory Configuration

Name             Origin             Length             Attributes
*default*        0x0000000000000000 0xffffffffffffffff

Linker script and memory map

Address of section .text set to 0x8004000

.text           0x0000000008004000     0x19e0
                0x0000000008004000                _text = .
 *(.text)
 .text          0x0000000008004000       0xa0 init.o
                0x0000000008004010                vec_stub_begin
                0x0000000008004084                sleep
                0x0000000008004084                vec_stub_end
 .text          0x00000000080040a0      0x140 misc.o
                0x00000000080040a0                sccputc
                0x00000000080040f0                devlogprintputc
                0x0000000008004124                xudelay
                0x000000000800417a                pow10
 .text          0x00000000080041e0       0x60 devrtc.o
                0x00000000080041e0                devrtc_getusecs
 .text          0x0000000008004240       0xdc findTheBugExample.o
                0x0000000008004240                main
                0x00000000080042a0                intr_hdlr
 .text          0x000000000800431c      0x66c /opt/f-of-e-tools/tools/sunflower/sys/libOS/eOS/libeOS-superH.a(print.o)
                0x00000000080048b0                print
                0x00000000080048dc                lprint
                0x0000000008004908                fprint
                0x0000000008004934                sprint
                0x0000000008004960                snprint
 .text          0x0000000008004988       0x10 /opt/f-of-e-tools/tools/sunflower/tools/tools-lib/superH/libc.a(lib_a-atexit.o)
                0x0000000008004988                atexit
 .text          0x0000000008004998       0x28 /opt/f-of-e-tools/tools/sunflower/tools/tools-lib/superH/libc.a(lib_a-malloc.o)
                0x0000000008004998                malloc
                0x00000000080049ac                free
 .text          0x00000000080049c0      0x5c0 /opt/f-of-e-tools/tools/sunflower/tools/tools-lib/superH/libc.a(lib_a-mallocr.o)
                0x00000000080049c0                _malloc_r
 .text          0x0000000008004f80        0x8 /opt/f-of-e-tools/tools/sunflower/tools/tools-lib/superH/libc.a(lib_a-mlock.o)
                0x0000000008004f80                __malloc_lock
                0x0000000008004f84                __malloc_unlock
 .text          0x0000000008004f88       0x38 /opt/f-of-e-tools/tools/sunflower/tools/tools-lib/superH/libc.a(lib_a-sbrkr.o)
                0x0000000008004f88                _sbrk_r
 .text          0x0000000008004fc0      0x278 /opt/f-of-e-tools/tools/sunflower/tools/tools-lib/superH/libc.a(lib_a-syscalls.o)
                0x0000000008005044                _read
                0x0000000008005054                _lseek
                0x0000000008005064                _write
                0x0000000008005074                _close
                0x0000000008005084                _link
                0x0000000008005088                _sbrk
                0x00000000080050f0                _fstat
                0x00000000080050fc                _open
                0x000000000800510c                _creat
                0x000000000800511c                _unlink
                0x0000000008005120                isatty
                0x0000000008005124                _isatty
                0x0000000008005128                _exit
                0x0000000008005138                _kill
                0x000000000800514c                _getpid
                0x0000000008005150                _raise
                0x0000000008005154                _stat
                0x0000000008005164                _chmod
                0x0000000008005174                _chown
                0x0000000008005184                _utime
                0x0000000008005198                _fork
                0x00000000080051a4                _wait
                0x00000000080051b4                _execve
                0x00000000080051c4                _execv
                0x00000000080051d4                _pipe
                0x00000000080051e0                _times
                0x00000000080051e4                _gettimeofday
                0x000000000800520c                __setup_argv_and_call_main
 .text          0x0000000008005238       0x14 /opt/f-of-e-tools/tools/sunflower/tools/tools-lib/superH/libc.a(lib_a-trap.o)
                0x0000000008005238                __trap34
 .text          0x000000000800524c       0xd4 /opt/f-of-e-tools/tools/sunflower/tools/tools-lib/superH/libc.a(lib_a-__atexit.o)
                0x000000000800524c                __register_exitproc
 .text          0x0000000008005320       0x18 /opt/f-of-e-tools/tools/sunflower/tools/tools-lib/superH/libc.a(lib_a-abort.o)
                0x0000000008005320                abort
 .text          0x0000000008005338      0x2fc /opt/f-of-e-tools/tools/sunflower/tools/tools-lib/superH/libc.a(lib_a-freer.o)
                0x0000000008005338                _malloc_trim_r
                0x000000000800540c                _free_r
 .text          0x0000000008005634        0x0 /opt/f-of-e-tools/tools/sunflower/tools/tools-lib/superH/libc.a(lib_a-impure.o)
 .text          0x0000000008005634      0x1fc /opt/f-of-e-tools/tools/sunflower/tools/tools-lib/superH/libc.a(lib_a-signal.o)
                0x000000000800566c                _init_signal_r
                0x0000000008005688                _signal_r
                0x00000000080056dc                _raise_r
                0x000000000800575c                __sigtramp_r
                0x00000000080057d0                raise
                0x00000000080057e4                signal
                0x00000000080057f8                _init_signal
                0x000000000800581c                __sigtramp
 .text          0x0000000008005830       0x48 /opt/f-of-e-tools/tools/sunflower/tools/tools-lib/superH/libc.a(lib_a-signalr.o)
                0x0000000008005830                _kill_r
                0x000000000800586c                _getpid_r
 .text          0x0000000008005878       0xc8 /opt/f-of-e-tools/tools/sunflower/tools/tools-lib/superH/libgcc.a(_ashiftlt.o)
                0x0000000008005878                __ashlsi3
                0x000000000800587c                __ashlsi3_r0
 .text          0x0000000008005940       0xa0 /opt/f-of-e-tools/tools/sunflower/tools/tools-lib/superH/libgcc.a(_sdivsi3.o)
                0x0000000008005940                __sdivsi3
 *(.strings)
                0x00000000080059e0                _etext = .

.rodata         0x00000000080059e0       0x20
 .rodata        0x00000000080059e0       0x11 findTheBugExample.o
 *fill*         0x00000000080059f1        0x3 
 .rodata        0x00000000080059f4        0x4 /opt/f-of-e-tools/tools/sunflower/tools/tools-lib/superH/libc.a(lib_a-impure.o)
                0x00000000080059f4                _global_impure_ptr

.rodata.str1.4  0x0000000008005a00       0x30
 .rodata.str1.4
                0x0000000008005a00       0x11 /opt/f-of-e-tools/tools/sunflower/sys/libOS/eOS/libeOS-superH.a(print.o)
 *fill*         0x0000000008005a11        0x3 
 .rodata.str1.4
                0x0000000008005a14       0x1a /opt/f-of-e-tools/tools/sunflower/tools/tools-lib/superH/libc.a(lib_a-syscalls.o)

.tors           0x0000000008005a30        0x0
                0x0000000008005a30                ___ctors = .
 *(.ctors)
                0x0000000008005a30                ___ctors_end = .
                0x0000000008005a30                ___dtors = .
 *(.dtors)
                0x0000000008005a30                ___dtors_end = .

.data           0x0000000008005a30      0x840
                0x0000000008005a30                _data = .
 *(.data)
 .data          0x0000000008005a30        0x0 init.o
 .data          0x0000000008005a30        0x0 misc.o
 .data          0x0000000008005a30        0x0 devrtc.o
 .data          0x0000000008005a30        0x4 findTheBugExample.o
                0x0000000008005a30                gFlag
 .data          0x0000000008005a34        0x0 /opt/f-of-e-tools/tools/sunflower/sys/libOS/eOS/libeOS-superH.a(print.o)
 .data          0x0000000008005a34        0x0 /opt/f-of-e-tools/tools/sunflower/tools/tools-lib/superH/libc.a(lib_a-atexit.o)
 .data          0x0000000008005a34        0x0 /opt/f-of-e-tools/tools/sunflower/tools/tools-lib/superH/libc.a(lib_a-malloc.o)
 .data          0x0000000008005a34      0x410 /opt/f-of-e-tools/tools/sunflower/tools/tools-lib/superH/libc.a(lib_a-mallocr.o)
                0x0000000008005a34                __malloc_sbrk_base
                0x0000000008005a38                __malloc_trim_threshold
                0x0000000008005a3c                __malloc_av_
 .data          0x0000000008005e44        0x0 /opt/f-of-e-tools/tools/sunflower/tools/tools-lib/superH/libc.a(lib_a-mlock.o)
 .data          0x0000000008005e44        0x0 /opt/f-of-e-tools/tools/sunflower/tools/tools-lib/superH/libc.a(lib_a-sbrkr.o)
 .data          0x0000000008005e44        0x0 /opt/f-of-e-tools/tools/sunflower/tools/tools-lib/superH/libc.a(lib_a-syscalls.o)
 .data          0x0000000008005e44        0x0 /opt/f-of-e-tools/tools/sunflower/tools/tools-lib/superH/libc.a(lib_a-trap.o)
 .data          0x0000000008005e44        0x0 /opt/f-of-e-tools/tools/sunflower/tools/tools-lib/superH/libc.a(lib_a-__atexit.o)
 .data          0x0000000008005e44        0x0 /opt/f-of-e-tools/tools/sunflower/tools/tools-lib/superH/libc.a(lib_a-abort.o)
 .data          0x0000000008005e44        0x0 /opt/f-of-e-tools/tools/sunflower/tools/tools-lib/superH/libc.a(lib_a-freer.o)
 .data          0x0000000008005e44      0x428 /opt/f-of-e-tools/tools/sunflower/tools/tools-lib/superH/libc.a(lib_a-impure.o)
                0x0000000008005e44                _impure_ptr
 .data          0x000000000800626c        0x0 /opt/f-of-e-tools/tools/sunflower/tools/tools-lib/superH/libc.a(lib_a-signal.o)
 .data          0x000000000800626c        0x0 /opt/f-of-e-tools/tools/sunflower/tools/tools-lib/superH/libc.a(lib_a-signalr.o)
 .data          0x000000000800626c        0x0 /opt/f-of-e-tools/tools/sunflower/tools/tools-lib/superH/libgcc.a(_ashiftlt.o)
 .data          0x000000000800626c        0x0 /opt/f-of-e-tools/tools/sunflower/tools/tools-lib/superH/libgcc.a(_sdivsi3.o)
 *(.gcc_exc*)
                0x000000000800626c                ___EH_FRAME_BEGIN__ = .
 *(.eh_fram*)
                0x000000000800626c                ___EH_FRAME_END__ = .
                0x000000000800626c        0x4 LONG 0x0
                0x0000000008006270                _edata = .

.bss            0x0000000008006270       0x60
                0x0000000008006270                _bss = .
 *(.bss)
 .bss           0x0000000008006270        0x0 init.o
 .bss           0x0000000008006270        0x0 misc.o
 .bss           0x0000000008006270        0x0 devrtc.o
 .bss           0x0000000008006270        0x0 findTheBugExample.o
 .bss           0x0000000008006270        0x0 /opt/f-of-e-tools/tools/sunflower/sys/libOS/eOS/libeOS-superH.a(print.o)
 .bss           0x0000000008006270        0x0 /opt/f-of-e-tools/tools/sunflower/tools/tools-lib/superH/libc.a(lib_a-atexit.o)
 .bss           0x0000000008006270        0x0 /opt/f-of-e-tools/tools/sunflower/tools/tools-lib/superH/libc.a(lib_a-malloc.o)
 .bss           0x0000000008006270       0x34 /opt/f-of-e-tools/tools/sunflower/tools/tools-lib/superH/libc.a(lib_a-mallocr.o)
                0x0000000008006270                __malloc_current_mallinfo
                0x0000000008006298                __malloc_max_total_mem
                0x000000000800629c                __malloc_max_sbrked_mem
                0x00000000080062a0                __malloc_top_pad
 .bss           0x00000000080062a4        0x0 /opt/f-of-e-tools/tools/sunflower/tools/tools-lib/superH/libc.a(lib_a-mlock.o)
 .bss           0x00000000080062a4        0x0 /opt/f-of-e-tools/tools/sunflower/tools/tools-lib/superH/libc.a(lib_a-sbrkr.o)
 .bss           0x00000000080062a4        0x4 /opt/f-of-e-tools/tools/sunflower/tools/tools-lib/superH/libc.a(lib_a-syscalls.o)
 .bss           0x00000000080062a8        0x0 /opt/f-of-e-tools/tools/sunflower/tools/tools-lib/superH/libc.a(lib_a-trap.o)
 .bss           0x00000000080062a8        0x0 /opt/f-of-e-tools/tools/sunflower/tools/tools-lib/superH/libc.a(lib_a-__atexit.o)
 .bss           0x00000000080062a8        0x0 /opt/f-of-e-tools/tools/sunflower/tools/tools-lib/superH/libc.a(lib_a-abort.o)
 .bss           0x00000000080062a8        0x0 /opt/f-of-e-tools/tools/sunflower/tools/tools-lib/superH/libc.a(lib_a-freer.o)
 .bss           0x00000000080062a8        0x0 /opt/f-of-e-tools/tools/sunflower/tools/tools-lib/superH/libc.a(lib_a-impure.o)
 .bss           0x00000000080062a8        0x0 /opt/f-of-e-tools/tools/sunflower/tools/tools-lib/superH/libc.a(lib_a-signal.o)
 .bss           0x00000000080062a8        0x0 /opt/f-of-e-tools/tools/sunflower/tools/tools-lib/superH/libc.a(lib_a-signalr.o)
 .bss           0x00000000080062a8        0x0 /opt/f-of-e-tools/tools/sunflower/tools/tools-lib/superH/libgcc.a(_ashiftlt.o)
 .bss           0x00000000080062a8        0x0 /opt/f-of-e-tools/tools/sunflower/tools/tools-lib/superH/libgcc.a(_sdivsi3.o)
 *(COMMON)
 COMMON         0x00000000080062a8       0x24 findTheBugExample.o
                0x00000000080062a8                REGSAVESTACK
 COMMON         0x00000000080062cc        0x4 /opt/f-of-e-tools/tools/sunflower/tools/tools-lib/superH/libc.a(lib_a-syscalls.o)
                0x00000000080062cc                errno
                0x00000000080062d0                _ebss = .
                0x00000000080062d0                _end = .
LOAD init.o
LOAD misc.o
LOAD devrtc.o
LOAD findTheBugExample.o
LOAD /opt/f-of-e-tools/tools/sunflower/sys/libOS/eOS/libeOS-superH.a
LOAD /opt/f-of-e-tools/tools/sunflower/tools/tools-lib/superH/libc.a
LOAD /opt/f-of-e-tools/tools/sunflower/tools/tools-lib/superH/libgcc.a
OUTPUT(findTheBugExample coff-sh)

.stab           0x0000000000000000     0x11a0
 .stab          0x0000000000000000      0x3fc misc.o
 .stab          0x00000000000003fc      0x264 devrtc.o
 .stab          0x0000000000000660      0xb40 findTheBugExample.o

.stabstr        0x0000000000000000     0x3b10
 .stabstr       0x0000000000000000      0xb87 misc.o
 .stabstr       0x0000000000000b87      0x98d devrtc.o
 .stabstr       0x0000000000001514     0x25f3 findTheBugExample.o

.comment        0x0000000000000000      0x120
 .comment       0x0000000000000000       0x12 misc.o
 .comment       0x0000000000000012       0x12 devrtc.o
 .comment       0x0000000000000024       0x12 findTheBugExample.o
 .comment       0x0000000000000036       0x12 /opt/f-of-e-tools/tools/sunflower/sys/libOS/eOS/libeOS-superH.a(print.o)
 .comment       0x0000000000000048       0x12 /opt/f-of-e-tools/tools/sunflower/tools/tools-lib/superH/libc.a(lib_a-atexit.o)
 .comment       0x000000000000005a       0x12 /opt/f-of-e-tools/tools/sunflower/tools/tools-lib/superH/libc.a(lib_a-malloc.o)
 .comment       0x000000000000006c       0x12 /opt/f-of-e-tools/tools/sunflower/tools/tools-lib/superH/libc.a(lib_a-mallocr.o)
 .comment       0x000000000000007e       0x12 /opt/f-of-e-tools/tools/sunflower/tools/tools-lib/superH/libc.a(lib_a-mlock.o)
 .comment       0x0000000000000090       0x12 /opt/f-of-e-tools/tools/sunflower/tools/tools-lib/superH/libc.a(lib_a-sbrkr.o)
 .comment       0x00000000000000a2       0x12 /opt/f-of-e-tools/tools/sunflower/tools/tools-lib/superH/libc.a(lib_a-syscalls.o)
 .comment       0x00000000000000b4       0x12 /opt/f-of-e-tools/tools/sunflower/tools/tools-lib/superH/libc.a(lib_a-__atexit.o)
 .comment       0x00000000000000c6       0x12 /opt/f-of-e-tools/tools/sunflower/tools/tools-lib/superH/libc.a(lib_a-abort.o)
 .comment       0x00000000000000d8       0x12 /opt/f-of-e-tools/tools/sunflower/tools/tools-lib/superH/libc.a(lib_a-freer.o)
 .comment       0x00000000000000ea       0x12 /opt/f-of-e-tools/tools/sunflower/tools/tools-lib/superH/libc.a(lib_a-impure.o)
 .comment       0x00000000000000fc       0x12 /opt/f-of-e-tools/tools/sunflower/tools/tools-lib/superH/libc.a(lib_a-signal.o)
 .comment       0x000000000000010e       0x12 /opt/f-of-e-tools/tools/sunflower/tools/tools-lib/superH/libc.a(lib_a-signalr.o)

.debug_info     0x0000000000000000     0x94b0
 .debug_info    0x0000000000000000      0x796 /opt/f-of-e-tools/tools/sunflower/sys/libOS/eOS/libeOS-superH.a(print.o)
 .debug_info    0x0000000000000796      0x991 /opt/f-of-e-tools/tools/sunflower/tools/tools-lib/superH/libc.a(lib_a-atexit.o)
 .debug_info    0x0000000000001127      0x9ae /opt/f-of-e-tools/tools/sunflower/tools/tools-lib/superH/libc.a(lib_a-malloc.o)
 .debug_info    0x0000000000001ad5      0xe41 /opt/f-of-e-tools/tools/sunflower/tools/tools-lib/superH/libc.a(lib_a-mallocr.o)
 .debug_info    0x0000000000002916      0x961 /opt/f-of-e-tools/tools/sunflower/tools/tools-lib/superH/libc.a(lib_a-mlock.o)
 .debug_info    0x0000000000003277      0x9ec /opt/f-of-e-tools/tools/sunflower/tools/tools-lib/superH/libc.a(lib_a-sbrkr.o)
 .debug_info    0x0000000000003c63     0x16df /opt/f-of-e-tools/tools/sunflower/tools/tools-lib/superH/libc.a(lib_a-syscalls.o)
 .debug_info    0x0000000000005342      0x9e0 /opt/f-of-e-tools/tools/sunflower/tools/tools-lib/superH/libc.a(lib_a-__atexit.o)
 .debug_info    0x0000000000005d22      0x9b5 /opt/f-of-e-tools/tools/sunflower/tools/tools-lib/superH/libc.a(lib_a-abort.o)
 .debug_info    0x00000000000066d7      0xd67 /opt/f-of-e-tools/tools/sunflower/tools/tools-lib/superH/libc.a(lib_a-freer.o)
 .debug_info    0x000000000000743e      0x92a /opt/f-of-e-tools/tools/sunflower/tools/tools-lib/superH/libc.a(lib_a-impure.o)
 .debug_info    0x0000000000007d68      0xcef /opt/f-of-e-tools/tools/sunflower/tools/tools-lib/superH/libc.a(lib_a-signal.o)
 .debug_info    0x0000000000008a57      0xa57 /opt/f-of-e-tools/tools/sunflower/tools/tools-lib/superH/libc.a(lib_a-signalr.o)

.debug_abbrev   0x0000000000000000     0x2130
 .debug_abbrev  0x0000000000000000      0x2e1 /opt/f-of-e-tools/tools/sunflower/sys/libOS/eOS/libeOS-superH.a(print.o)
 .debug_abbrev  0x00000000000002e1      0x22f /opt/f-of-e-tools/tools/sunflower/tools/tools-lib/superH/libc.a(lib_a-atexit.o)
 .debug_abbrev  0x0000000000000510      0x22d /opt/f-of-e-tools/tools/sunflower/tools/tools-lib/superH/libc.a(lib_a-malloc.o)
 .debug_abbrev  0x000000000000073d      0x30f /opt/f-of-e-tools/tools/sunflower/tools/tools-lib/superH/libc.a(lib_a-mallocr.o)
 .debug_abbrev  0x0000000000000a4c      0x1ff /opt/f-of-e-tools/tools/sunflower/tools/tools-lib/superH/libc.a(lib_a-mlock.o)
 .debug_abbrev  0x0000000000000c4b      0x247 /opt/f-of-e-tools/tools/sunflower/tools/tools-lib/superH/libc.a(lib_a-sbrkr.o)
 .debug_abbrev  0x0000000000000e92      0x418 /opt/f-of-e-tools/tools/sunflower/tools/tools-lib/superH/libc.a(lib_a-syscalls.o)
 .debug_abbrev  0x00000000000012aa      0x25f /opt/f-of-e-tools/tools/sunflower/tools/tools-lib/superH/libc.a(lib_a-__atexit.o)
 .debug_abbrev  0x0000000000001509      0x20b /opt/f-of-e-tools/tools/sunflower/tools/tools-lib/superH/libc.a(lib_a-abort.o)
 .debug_abbrev  0x0000000000001714      0x2bd /opt/f-of-e-tools/tools/sunflower/tools/tools-lib/superH/libc.a(lib_a-freer.o)
 .debug_abbrev  0x00000000000019d1      0x1b8 /opt/f-of-e-tools/tools/sunflower/tools/tools-lib/superH/libc.a(lib_a-impure.o)
 .debug_abbrev  0x0000000000001b89      0x344 /opt/f-of-e-tools/tools/sunflower/tools/tools-lib/superH/libc.a(lib_a-signal.o)
 .debug_abbrev  0x0000000000001ecd      0x25d /opt/f-of-e-tools/tools/sunflower/tools/tools-lib/superH/libc.a(lib_a-signalr.o)

.debug_loc      0x0000000000000000     0x32d0
 .debug_loc     0x0000000000000000     0x12bb /opt/f-of-e-tools/tools/sunflower/sys/libOS/eOS/libeOS-superH.a(print.o)
 .debug_loc     0x00000000000012bb       0x2c /opt/f-of-e-tools/tools/sunflower/tools/tools-lib/superH/libc.a(lib_a-atexit.o)
 .debug_loc     0x00000000000012e7       0x58 /opt/f-of-e-tools/tools/sunflower/tools/tools-lib/superH/libc.a(lib_a-malloc.o)
 .debug_loc     0x000000000000133f      0xb35 /opt/f-of-e-tools/tools/sunflower/tools/tools-lib/superH/libc.a(lib_a-mallocr.o)
 .debug_loc     0x0000000000001e74       0x66 /opt/f-of-e-tools/tools/sunflower/tools/tools-lib/superH/libc.a(lib_a-sbrkr.o)
 .debug_loc     0x0000000000001eda      0x7a1 /opt/f-of-e-tools/tools/sunflower/tools/tools-lib/superH/libc.a(lib_a-syscalls.o)
 .debug_loc     0x000000000000267b      0x1d3 /opt/f-of-e-tools/tools/sunflower/tools/tools-lib/superH/libc.a(lib_a-__atexit.o)
 .debug_loc     0x000000000000284e      0x585 /opt/f-of-e-tools/tools/sunflower/tools/tools-lib/superH/libc.a(lib_a-freer.o)
 .debug_loc     0x0000000000002dd3      0x440 /opt/f-of-e-tools/tools/sunflower/tools/tools-lib/superH/libc.a(lib_a-signal.o)
 .debug_loc     0x0000000000003213       0xb3 /opt/f-of-e-tools/tools/sunflower/tools/tools-lib/superH/libc.a(lib_a-signalr.o)

.debug_aranges  0x0000000000000000      0x1a0
 .debug_aranges
                0x0000000000000000       0x20 /opt/f-of-e-tools/tools/sunflower/sys/libOS/eOS/libeOS-superH.a(print.o)
 .debug_aranges
                0x0000000000000020       0x20 /opt/f-of-e-tools/tools/sunflower/tools/tools-lib/superH/libc.a(lib_a-atexit.o)
 .debug_aranges
                0x0000000000000040       0x20 /opt/f-of-e-tools/tools/sunflower/tools/tools-lib/superH/libc.a(lib_a-malloc.o)
 .debug_aranges
                0x0000000000000060       0x20 /opt/f-of-e-tools/tools/sunflower/tools/tools-lib/superH/libc.a(lib_a-mallocr.o)
 .debug_aranges
                0x0000000000000080       0x20 /opt/f-of-e-tools/tools/sunflower/tools/tools-lib/superH/libc.a(lib_a-mlock.o)
 .debug_aranges
                0x00000000000000a0       0x20 /opt/f-of-e-tools/tools/sunflower/tools/tools-lib/superH/libc.a(lib_a-sbrkr.o)
 .debug_aranges
                0x00000000000000c0       0x20 /opt/f-of-e-tools/tools/sunflower/tools/tools-lib/superH/libc.a(lib_a-syscalls.o)
 .debug_aranges
                0x00000000000000e0       0x20 /opt/f-of-e-tools/tools/sunflower/tools/tools-lib/superH/libc.a(lib_a-__atexit.o)
 .debug_aranges
                0x0000000000000100       0x20 /opt/f-of-e-tools/tools/sunflower/tools/tools-lib/superH/libc.a(lib_a-abort.o)
 .debug_aranges
                0x0000000000000120       0x20 /opt/f-of-e-tools/tools/sunflower/tools/tools-lib/superH/libc.a(lib_a-freer.o)
 .debug_aranges
                0x0000000000000140       0x18 /opt/f-of-e-tools/tools/sunflower/tools/tools-lib/superH/libc.a(lib_a-impure.o)
 .debug_aranges
                0x0000000000000158       0x20 /opt/f-of-e-tools/tools/sunflower/tools/tools-lib/superH/libc.a(lib_a-signal.o)
 .debug_aranges
                0x0000000000000178       0x20 /opt/f-of-e-tools/tools/sunflower/tools/tools-lib/superH/libc.a(lib_a-signalr.o)

.debug_ranges   0x0000000000000000      0x110
 .debug_ranges  0x0000000000000000       0x68 /opt/f-of-e-tools/tools/sunflower/sys/libOS/eOS/libeOS-superH.a(print.o)
 .debug_ranges  0x0000000000000068       0x38 /opt/f-of-e-tools/tools/sunflower/tools/tools-lib/superH/libc.a(lib_a-mallocr.o)
 .debug_ranges  0x00000000000000a0       0x18 /opt/f-of-e-tools/tools/sunflower/tools/tools-lib/superH/libc.a(lib_a-syscalls.o)
 .debug_ranges  0x00000000000000b8       0x30 /opt/f-of-e-tools/tools/sunflower/tools/tools-lib/superH/libc.a(lib_a-signal.o)
 .debug_ranges  0x00000000000000e8       0x20 /opt/f-of-e-tools/tools/sunflower/tools/tools-lib/superH/libc.a(lib_a-signalr.o)

.debug_macro    0x0000000000000000      0x710
 .debug_macro   0x0000000000000000       0x1a /opt/f-of-e-tools/tools/sunflower/sys/libOS/eOS/libeOS-superH.a(print.o)
 .debug_macro   0x000000000000001a      0x694 /opt/f-of-e-tools/tools/sunflower/sys/libOS/eOS/libeOS-superH.a(print.o)
 .debug_macro   0x00000000000006ae       0x58 /opt/f-of-e-tools/tools/sunflower/sys/libOS/eOS/libeOS-superH.a(print.o)

.debug_line     0x0000000000000000     0x2c60
 .debug_line    0x0000000000000000      0x7a6 /opt/f-of-e-tools/tools/sunflower/sys/libOS/eOS/libeOS-superH.a(print.o)
 .debug_line    0x00000000000007a6      0x1be /opt/f-of-e-tools/tools/sunflower/tools/tools-lib/superH/libc.a(lib_a-atexit.o)
 .debug_line    0x0000000000000964      0x1c6 /opt/f-of-e-tools/tools/sunflower/tools/tools-lib/superH/libc.a(lib_a-malloc.o)
 .debug_line    0x0000000000000b2a      0x85d /opt/f-of-e-tools/tools/sunflower/tools/tools-lib/superH/libc.a(lib_a-mallocr.o)
 .debug_line    0x0000000000001387      0x14c /opt/f-of-e-tools/tools/sunflower/tools/tools-lib/superH/libc.a(lib_a-mlock.o)
 .debug_line    0x00000000000014d3      0x1f5 /opt/f-of-e-tools/tools/sunflower/tools/tools-lib/superH/libc.a(lib_a-sbrkr.o)
 .debug_line    0x00000000000016c8      0x495 /opt/f-of-e-tools/tools/sunflower/tools/tools-lib/superH/libc.a(lib_a-syscalls.o)
 .debug_line    0x0000000000001b5d      0x2d3 /opt/f-of-e-tools/tools/sunflower/tools/tools-lib/superH/libc.a(lib_a-__atexit.o)
 .debug_line    0x0000000000001e30      0x1d3 /opt/f-of-e-tools/tools/sunflower/tools/tools-lib/superH/libc.a(lib_a-abort.o)
 .debug_line    0x0000000000002003      0x51f /opt/f-of-e-tools/tools/sunflower/tools/tools-lib/superH/libc.a(lib_a-freer.o)
 .debug_line    0x0000000000002522      0x134 /opt/f-of-e-tools/tools/sunflower/tools/tools-lib/superH/libc.a(lib_a-impure.o)
 .debug_line    0x0000000000002656      0x407 /opt/f-of-e-tools/tools/sunflower/tools/tools-lib/superH/libc.a(lib_a-signal.o)
 .debug_line    0x0000000000002a5d      0x203 /opt/f-of-e-tools/tools/sunflower/tools/tools-lib/superH/libc.a(lib_a-signalr.o)

.debug_str      0x0000000000000000     0x6850
 .debug_str     0x0000000000000000     0x202b /opt/f-of-e-tools/tools/sunflower/sys/libOS/eOS/libeOS-superH.a(print.o)
 .debug_str     0x000000000000202b      0x57c /opt/f-of-e-tools/tools/sunflower/tools/tools-lib/superH/libc.a(lib_a-atexit.o)
 .debug_str     0x00000000000025a7      0x562 /opt/f-of-e-tools/tools/sunflower/tools/tools-lib/superH/libc.a(lib_a-malloc.o)
 .debug_str     0x0000000000002b09      0x799 /opt/f-of-e-tools/tools/sunflower/tools/tools-lib/superH/libc.a(lib_a-mallocr.o)
 .debug_str     0x00000000000032a2      0x55d /opt/f-of-e-tools/tools/sunflower/tools/tools-lib/superH/libc.a(lib_a-mlock.o)
 .debug_str     0x00000000000037ff      0x574 /opt/f-of-e-tools/tools/sunflower/tools/tools-lib/superH/libc.a(lib_a-sbrkr.o)
 .debug_str     0x0000000000003d73      0x830 /opt/f-of-e-tools/tools/sunflower/tools/tools-lib/superH/libc.a(lib_a-syscalls.o)
 .debug_str     0x00000000000045a3      0x5a1 /opt/f-of-e-tools/tools/sunflower/tools/tools-lib/superH/libc.a(lib_a-__atexit.o)
 .debug_str     0x0000000000004b44      0x56f /opt/f-of-e-tools/tools/sunflower/tools/tools-lib/superH/libc.a(lib_a-abort.o)
 .debug_str     0x00000000000050b3      0x712 /opt/f-of-e-tools/tools/sunflower/tools/tools-lib/superH/libc.a(lib_a-freer.o)
 .debug_str     0x00000000000057c5      0x531 /opt/f-of-e-tools/tools/sunflower/tools/tools-lib/superH/libc.a(lib_a-impure.o)
 .debug_str     0x0000000000005cf6      0x5d4 /opt/f-of-e-tools/tools/sunflower/tools/tools-lib/superH/libc.a(lib_a-signal.o)
 .debug_str     0x00000000000062ca      0x579 /opt/f-of-e-tools/tools/sunflower/tools/tools-lib/superH/libc.a(lib_a-signalr.o)

.debug_frame    0x0000000000000000      0x8f0
 .debug_frame   0x0000000000000000      0x1dc /opt/f-of-e-tools/tools/sunflower/sys/libOS/eOS/libeOS-superH.a(print.o)
 .debug_frame   0x00000000000001dc       0x20 /opt/f-of-e-tools/tools/sunflower/tools/tools-lib/superH/libc.a(lib_a-atexit.o)
 .debug_frame   0x00000000000001fc       0x30 /opt/f-of-e-tools/tools/sunflower/tools/tools-lib/superH/libc.a(lib_a-malloc.o)
 .debug_frame   0x000000000000022c       0x98 /opt/f-of-e-tools/tools/sunflower/tools/tools-lib/superH/libc.a(lib_a-mallocr.o)
 .debug_frame   0x00000000000002c4       0x30 /opt/f-of-e-tools/tools/sunflower/tools/tools-lib/superH/libc.a(lib_a-mlock.o)
 .debug_frame   0x00000000000002f4       0x4c /opt/f-of-e-tools/tools/sunflower/tools/tools-lib/superH/libc.a(lib_a-sbrkr.o)
 .debug_frame   0x0000000000000340      0x2a0 /opt/f-of-e-tools/tools/sunflower/tools/tools-lib/superH/libc.a(lib_a-syscalls.o)
 .debug_frame   0x00000000000005e0       0x50 /opt/f-of-e-tools/tools/sunflower/tools/tools-lib/superH/libc.a(lib_a-__atexit.o)
 .debug_frame   0x0000000000000630       0x28 /opt/f-of-e-tools/tools/sunflower/tools/tools-lib/superH/libc.a(lib_a-abort.o)
 .debug_frame   0x0000000000000658       0xc8 /opt/f-of-e-tools/tools/sunflower/tools/tools-lib/superH/libc.a(lib_a-freer.o)
 .debug_frame   0x0000000000000720      0x168 /opt/f-of-e-tools/tools/sunflower/tools/tools-lib/superH/libc.a(lib_a-signal.o)
 .debug_frame   0x0000000000000888       0x5c /opt/f-of-e-tools/tools/sunflower/tools/tools-lib/superH/libc.a(lib_a-signalr.o)
